target datalayout = "e-m:e-p270:32:32-p271:32:32-p272:64:64-i64:64-i128:128-f80:128-n8:16:32:64-S128"
target triple = "x86_64-pc-linux-gnu"

%struct.CK_FUNCTION_LIST = type { %struct.CK_VERSION, ptr, ptr, ptr, ptr, ptr, ptr, ptr, ptr, ptr, ptr, ptr, ptr, ptr, ptr, ptr, ptr, ptr, ptr, ptr, ptr, ptr, ptr, ptr, ptr, ptr, ptr, ptr, ptr, ptr, ptr, ptr, ptr, ptr, ptr, ptr, ptr, ptr, ptr, ptr, ptr, ptr, ptr, ptr, ptr, ptr, ptr, ptr, ptr, ptr, ptr, ptr, ptr, ptr, ptr, ptr, ptr, ptr, ptr, ptr, ptr, ptr, ptr, ptr, ptr, ptr, ptr, ptr, ptr }
%struct.CK_VERSION = type { i8, i8 }
%struct.JNINativeInterface_ = type { ptr, ptr, ptr, ptr, ptr, ptr, ptr, ptr, ptr, ptr, ptr, ptr, ptr, ptr, ptr, ptr, ptr, ptr, ptr, ptr, ptr, ptr, ptr, ptr, ptr, ptr, ptr, ptr, ptr, ptr, ptr, ptr, ptr, ptr, ptr, ptr, ptr, ptr, ptr, ptr, ptr, ptr, ptr, ptr, ptr, ptr, ptr, ptr, ptr, ptr, ptr, ptr, ptr, ptr, ptr, ptr, ptr, ptr, ptr, ptr, ptr, ptr, ptr, ptr, ptr, ptr, ptr, ptr, ptr, ptr, ptr, ptr, ptr, ptr, ptr, ptr, ptr, ptr, ptr, ptr, ptr, ptr, ptr, ptr, ptr, ptr, ptr, ptr, ptr, ptr, ptr, ptr, ptr, ptr, ptr, ptr, ptr, ptr, ptr, ptr, ptr, ptr, ptr, ptr, ptr, ptr, ptr, ptr, ptr, ptr, ptr, ptr, ptr, ptr, ptr, ptr, ptr, ptr, ptr, ptr, ptr, ptr, ptr, ptr, ptr, ptr, ptr, ptr, ptr, ptr, ptr, ptr, ptr, ptr, ptr, ptr, ptr, ptr, ptr, ptr, ptr, ptr, ptr, ptr, ptr, ptr, ptr, ptr, ptr, ptr, ptr, ptr, ptr, ptr, ptr, ptr, ptr, ptr, ptr, ptr, ptr, ptr, ptr, ptr, ptr, ptr, ptr, ptr, ptr, ptr, ptr, ptr, ptr, ptr, ptr, ptr, ptr, ptr, ptr, ptr, ptr, ptr, ptr, ptr, ptr, ptr, ptr, ptr, ptr, ptr, ptr, ptr, ptr, ptr, ptr, ptr, ptr, ptr, ptr, ptr, ptr, ptr, ptr, ptr, ptr, ptr, ptr, ptr, ptr, ptr, ptr, ptr, ptr, ptr, ptr, ptr, ptr, ptr, ptr, ptr, ptr, ptr, ptr, ptr, ptr, ptr, ptr, ptr, ptr, ptr, ptr, ptr, ptr, ptr, ptr }

@.str = private unnamed_addr constant [112 x i8] c"C_1GenerateKeyPair(): C_GenerateKeyPair() failed                     with CKR_FUNCTION_FAILED error, try again\0A\00", align 1

; Function Attrs: nounwind uwtable
define ptr @Java_sun_security_pkcs11_wrapper_PKCS11_C_1GenerateKeyPair(ptr noundef %0, ptr noundef %1, i64 noundef %2, ptr noundef %3, ptr noundef %4, ptr noundef %5) #0 {
  %7 = alloca ptr, align 8
  %8 = alloca ptr, align 8
  %9 = alloca ptr, align 8
  %10 = alloca i64, align 8
  %11 = alloca ptr, align 8
  %12 = alloca ptr, align 8
  %13 = alloca ptr, align 8
  %14 = alloca i64, align 8
  %15 = alloca ptr, align 8
  %16 = alloca ptr, align 8
  %17 = alloca ptr, align 8
  %18 = alloca i64, align 8
  %19 = alloca i64, align 8
  %20 = alloca ptr, align 8
  %21 = alloca ptr, align 8
  %22 = alloca ptr, align 8
  %23 = alloca ptr, align 8
  %24 = alloca i64, align 8
  %25 = alloca i32, align 4
  %26 = alloca i32, align 4
  %27 = alloca ptr, align 8
  store ptr %0, ptr %8, align 8
  store ptr %1, ptr %9, align 8
  store i64 %2, ptr %10, align 8
  store ptr %3, ptr %11, align 8
  store ptr %4, ptr %12, align 8
  store ptr %5, ptr %13, align 8
  store ptr null, ptr %15, align 8
  store ptr null, ptr %16, align 8
  store ptr null, ptr %17, align 8
  store i64 0, ptr %18, align 8
  store i64 0, ptr %19, align 8
  store ptr null, ptr %22, align 8
  store ptr null, ptr %23, align 8
  store i32 3, ptr %26, align 4
  %28 = load ptr, ptr %8, align 8
  %29 = load ptr, ptr %9, align 8
  %30 = call ptr @getFunctionList(ptr noundef %28, ptr noundef %29)
  store ptr %30, ptr %27, align 8
  %31 = load ptr, ptr %27, align 8
  %32 = icmp eq ptr %31, null
  br i1 %32, label %33, label %34

33:                                               ; preds = %6
  store ptr null, ptr %7, align 8
  br label %123

34:                                               ; preds = %6
  %35 = load i64, ptr %10, align 8
  store i64 %35, ptr %14, align 8
  %36 = load ptr, ptr %8, align 8
  %37 = load ptr, ptr %11, align 8
  %38 = call ptr @jMechanismToCKMechanismPtr(ptr noundef %36, ptr noundef %37)
  store ptr %38, ptr %15, align 8
  %39 = load ptr, ptr %8, align 8
  %40 = load ptr, ptr %39, align 8
  %41 = getelementptr inbounds %struct.JNINativeInterface_, ptr %40, i32 0, i32 228
  %42 = load ptr, ptr %41, align 8
  %43 = load ptr, ptr %8, align 8
  %44 = call zeroext i8 %42(ptr noundef %43)
  %45 = icmp ne i8 %44, 0
  br i1 %45, label %46, label %47

46:                                               ; preds = %34
  store ptr null, ptr %7, align 8
  br label %123

47:                                               ; preds = %34
  %48 = call noalias ptr @calloc(i64 noundef 2, i64 noundef 8) #6
  store ptr %48, ptr %22, align 8
  %49 = load ptr, ptr %22, align 8
  %50 = icmp eq ptr %49, null
  br i1 %50, label %51, label %53

51:                                               ; preds = %47
  %52 = load ptr, ptr %8, align 8
  call void @p11ThrowOutOfMemoryError(ptr noundef %52, ptr noundef null)
  br label %113

53:                                               ; preds = %47
  %54 = load ptr, ptr %22, align 8
  store ptr %54, ptr %20, align 8
  %55 = load ptr, ptr %22, align 8
  %56 = getelementptr inbounds i64, ptr %55, i64 1
  store ptr %56, ptr %21, align 8
  %57 = load ptr, ptr %8, align 8
  %58 = load ptr, ptr %12, align 8
  call void @jAttributeArrayToCKAttributeArray(ptr noundef %57, ptr noundef %58, ptr noundef %16, ptr noundef %18)
  %59 = load ptr, ptr %8, align 8
  %60 = load ptr, ptr %59, align 8
  %61 = getelementptr inbounds %struct.JNINativeInterface_, ptr %60, i32 0, i32 228
  %62 = load ptr, ptr %61, align 8
  %63 = load ptr, ptr %8, align 8
  %64 = call zeroext i8 %62(ptr noundef %63)
  %65 = icmp ne i8 %64, 0
  br i1 %65, label %66, label %67

66:                                               ; preds = %53
  br label %113

67:                                               ; preds = %53
  %68 = load ptr, ptr %8, align 8
  %69 = load ptr, ptr %13, align 8
  call void @jAttributeArrayToCKAttributeArray(ptr noundef %68, ptr noundef %69, ptr noundef %17, ptr noundef %19)
  %70 = load ptr, ptr %8, align 8
  %71 = load ptr, ptr %70, align 8
  %72 = getelementptr inbounds %struct.JNINativeInterface_, ptr %71, i32 0, i32 228
  %73 = load ptr, ptr %72, align 8
  %74 = load ptr, ptr %8, align 8
  %75 = call zeroext i8 %73(ptr noundef %74)
  %76 = icmp ne i8 %75, 0
  br i1 %76, label %77, label %78

77:                                               ; preds = %67
  br label %113

78:                                               ; preds = %67
  store i32 0, ptr %25, align 4
  br label %79

79:                                               ; preds = %100, %78
  %80 = load i32, ptr %25, align 4
  %81 = icmp slt i32 %80, 3
  br i1 %81, label %82, label %103

82:                                               ; preds = %79
  %83 = load ptr, ptr %27, align 8
  %84 = getelementptr inbounds %struct.CK_FUNCTION_LIST, ptr %83, i32 0, i32 60
  %85 = load ptr, ptr %84, align 8
  %86 = load i64, ptr %14, align 8
  %87 = load ptr, ptr %15, align 8
  %88 = load ptr, ptr %16, align 8
  %89 = load i64, ptr %18, align 8
  %90 = load ptr, ptr %17, align 8
  %91 = load i64, ptr %19, align 8
  %92 = load ptr, ptr %20, align 8
  %93 = load ptr, ptr %21, align 8
  %94 = call i64 %85(i64 noundef %86, ptr noundef %87, ptr noundef %88, i64 noundef %89, ptr noundef %90, i64 noundef %91, ptr noundef %92, ptr noundef %93)
  store i64 %94, ptr %24, align 8
  %95 = load i64, ptr %24, align 8
  %96 = icmp eq i64 %95, 6
  br i1 %96, label %97, label %98

97:                                               ; preds = %82
  call void (ptr, ...) @printDebug(ptr noundef @.str)
  br label %99

98:                                               ; preds = %82
  br label %103

99:                                               ; preds = %97
  br label %100

100:                                              ; preds = %99
  %101 = load i32, ptr %25, align 4
  %102 = add nsw i32 %101, 1
  store i32 %102, ptr %25, align 4
  br label %79, !llvm.loop !10

103:                                              ; preds = %98, %79
  %104 = load ptr, ptr %8, align 8
  %105 = load i64, ptr %24, align 8
  %106 = call i64 @ckAssertReturnValueOK(ptr noundef %104, i64 noundef %105)
  %107 = icmp eq i64 %106, 0
  br i1 %107, label %108, label %112

108:                                              ; preds = %103
  %109 = load ptr, ptr %8, align 8
  %110 = load ptr, ptr %22, align 8
  %111 = call ptr @ckULongArrayToJLongArray(ptr noundef %109, ptr noundef %110, i64 noundef 2)
  store ptr %111, ptr %23, align 8
  br label %112

112:                                              ; preds = %108, %103
  br label %113

113:                                              ; preds = %112, %77, %66, %51
  %114 = load ptr, ptr %15, align 8
  call void @freeCKMechanismPtr(ptr noundef %114)
  %115 = load ptr, ptr %22, align 8
  call void @free(ptr noundef %115) #7
  %116 = load ptr, ptr %16, align 8
  %117 = load i64, ptr %18, align 8
  %118 = trunc i64 %117 to i32
  call void @freeCKAttributeArray(ptr noundef %116, i32 noundef %118)
  %119 = load ptr, ptr %17, align 8
  %120 = load i64, ptr %19, align 8
  %121 = trunc i64 %120 to i32
  call void @freeCKAttributeArray(ptr noundef %119, i32 noundef %121)
  %122 = load ptr, ptr %23, align 8
  store ptr %122, ptr %7, align 8
  br label %123

123:                                              ; preds = %113, %46, %33
  %124 = load ptr, ptr %7, align 8
  ret ptr %124
}