; Function Attrs: nounwind uwtable
define ptr @Java_sun_security_pkcs11_wrapper_PKCS11_C_1GenerateKeyPair(ptr noundef %0, ptr noundef %1, i64 noundef %2, ptr noundef %3, ptr noundef %4, ptr noundef %5) local_unnamed_addr #0 {
  %7 = alloca ptr, align 8
  %8 = alloca ptr, align 8
  %9 = alloca i64, align 8
  %10 = alloca i64, align 8
  store ptr null, ptr %7, align 8
  store ptr null, ptr %8, align 8
  store i64 0, ptr %9, align 8
  store i64 0, ptr %10, align 8
  %11 = tail call ptr @getFunctionList(ptr noundef %0, ptr noundef %1) #5
  %12 = icmp eq ptr %11, null
  br i1 %12, label %57, label %13

13:                                               ; preds = %6
  %14 = tail call ptr @jMechanismToCKMechanismPtr(ptr noundef %0, ptr noundef %3) #5
  %15 = load ptr, ptr %0, align 8
  %16 = getelementptr inbounds i8, ptr %15, i64 1824
  %17 = load ptr, ptr %16, align 8
  %18 = tail call zeroext i8 %17(ptr noundef nonnull %0) #5
  %.not = icmp eq i8 %18, 0
  br i1 %.not, label %19, label %57

19:                                               ; preds = %13
  %20 = tail call noalias dereferenceable_or_null(16) ptr @calloc(i64 noundef 2, i64 noundef 8) #6
  %21 = icmp eq ptr %20, null
  br i1 %21, label %22, label %23

22:                                               ; preds = %19
  tail call void @p11ThrowOutOfMemoryError(ptr noundef nonnull %0, ptr noundef null) #5
  br label %50

23:                                               ; preds = %19
  %24 = getelementptr inbounds i8, ptr %20, i64 8
  call void @jAttributeArrayToCKAttributeArray(ptr noundef nonnull %0, ptr noundef %4, ptr noundef nonnull %7, ptr noundef nonnull %9) #5
  %25 = load ptr, ptr %0, align 8
  %26 = getelementptr inbounds i8, ptr %25, i64 1824
  %27 = load ptr, ptr %26, align 8
  %28 = call zeroext i8 %27(ptr noundef nonnull %0) #5
  %.not42 = icmp eq i8 %28, 0
  br i1 %.not42, label %29, label %50

29:                                               ; preds = %23
  call void @jAttributeArrayToCKAttributeArray(ptr noundef nonnull %0, ptr noundef %5, ptr noundef nonnull %8, ptr noundef nonnull %10) #5
  %30 = load ptr, ptr %0, align 8
  %31 = getelementptr inbounds i8, ptr %30, i64 1824
  %32 = load ptr, ptr %31, align 8
  %33 = call zeroext i8 %32(ptr noundef nonnull %0) #5
  %.not43 = icmp eq i8 %33, 0
  br i1 %.not43, label %.preheader, label %50

.preheader:                                       ; preds = %29
  %34 = getelementptr inbounds i8, ptr %11, i64 480
  br label %35

35:                                               ; preds = %.preheader, %43
  %.03544 = phi i32 [ 0, %.preheader ], [ %44, %43 ]
  %36 = load ptr, ptr %34, align 8
  %37 = load ptr, ptr %7, align 8
  %38 = load i64, ptr %9, align 8
  %39 = load ptr, ptr %8, align 8
  %40 = load i64, ptr %10, align 8
  %41 = call i64 %36(i64 noundef %2, ptr noundef %14, ptr noundef %37, i64 noundef %38, ptr noundef %39, i64 noundef %40, ptr noundef nonnull %20, ptr noundef nonnull %24) #5
  %42 = icmp eq i64 %41, 6
  br i1 %42, label %43, label %45

43:                                               ; preds = %35
  call void (ptr, ...) @printDebug(ptr noundef nonnull @.str) #5
  %44 = add nuw nsw i32 %.03544, 1
  %exitcond.not = icmp eq i32 %44, 3
  br i1 %exitcond.not, label %45, label %35, !llvm.loop !10

45:                                               ; preds = %35, %43
  %46 = call i64 @ckAssertReturnValueOK(ptr noundef nonnull %0, i64 noundef %41) #5
  %47 = icmp eq i64 %46, 0
  br i1 %47, label %48, label %50

48:                                               ; preds = %45
  %49 = call ptr @ckULongArrayToJLongArray(ptr noundef nonnull %0, ptr noundef nonnull %20, i64 noundef 2) #5
  br label %50

50:                                               ; preds = %45, %48, %29, %23, %22
  %.037 = phi ptr [ null, %22 ], [ null, %23 ], [ null, %29 ], [ %49, %48 ], [ null, %45 ]
  call void @freeCKMechanismPtr(ptr noundef %14) #5
  call void @free(ptr noundef %20) #5
  %51 = load ptr, ptr %7, align 8
  %52 = load i64, ptr %9, align 8
  %53 = trunc i64 %52 to i32
  call void @freeCKAttributeArray(ptr noundef %51, i32 noundef %53) #5
  %54 = load ptr, ptr %8, align 8
  %55 = load i64, ptr %10, align 8
  %56 = trunc i64 %55 to i32
  call void @freeCKAttributeArray(ptr noundef %54, i32 noundef %56) #5
  br label %57

57:                                               ; preds = %13, %6, %50
  %.0 = phi ptr [ %.037, %50 ], [ null, %6 ], [ null, %13 ]
  ret ptr %.0
}